target datalayout = "e-m:e-p270:32:32-p271:32:32-p272:64:64-i64:64-i128:128-f80:128-n8:16:32:64-S128"
target triple = "x86_64-pc-linux-gnu"

%struct.mbedtls_md_info_t = type { ptr, i32, i8, i8 }

@mbedtls_sha1_info = hidden constant %struct.mbedtls_md_info_t { ptr @.str, i32 2, i8 20, i8 64 }, align 8
@mbedtls_sha224_info = hidden constant %struct.mbedtls_md_info_t { ptr @.str.1, i32 3, i8 28, i8 64 }, align 8
@mbedtls_sha256_info = hidden constant %struct.mbedtls_md_info_t { ptr @.str.2, i32 4, i8 32, i8 64 }, align 8

; Function Attrs: mustprogress nounwind uwtable
define hidden ptr @mbedtls_md_info_from_type(i32 noundef %0) #0 {
  %2 = alloca ptr, align 8
  %3 = alloca i32, align 4
  store i32 %0, ptr %3, align 4, !tbaa !8
  %4 = load i32, ptr %3, align 4, !tbaa !8
  switch i32 %4, label %8 [
    i32 2, label %5
    i32 3, label %6
    i32 4, label %7
  ]

5:                                                ; preds = %1
  store ptr @mbedtls_sha1_info, ptr %2, align 8
  br label %9

6:                                                ; preds = %1
  store ptr @mbedtls_sha224_info, ptr %2, align 8
  br label %9

7:                                                ; preds = %1
  store ptr @mbedtls_sha256_info, ptr %2, align 8
  br label %9

8:                                                ; preds = %1
  store ptr null, ptr %2, align 8
  br label %9

9:                                                ; preds = %8, %7, %6, %5
  %10 = load ptr, ptr %2, align 8
  ret ptr %10
}